	.text
	.intel_syntax noprefix
	.file	"toy.bc"
	.file	1 "toy.c"
	.file	2 "/usr/include/stdint.h"
	.globl	lava_set
	.align	16, 0x90
	.type	lava_set,@function
lava_set:                               # @lava_set
.Lfunc_begin0:
	.loc	1 5 0                   # toy.c:5:0
	.cfi_startproc
# BB#0:
	push	rbp
.Ltmp0:
	.cfi_def_cfa_offset 16
.Ltmp1:
	.cfi_offset rbp, -16
	mov	rbp, rsp
.Ltmp2:
	.cfi_def_cfa_register rbp
	#DEBUG_VALUE: lava_set:bug_num <- [%RBP+-4]
	#DEBUG_VALUE: lava_set:val <- [%RBP+-8]
	mov	dword ptr [rbp - 4], edi
	mov	dword ptr [rbp - 8], esi
	.loc	1 5 57 prologue_end     # toy.c:5:57
.Ltmp3:
	mov	eax, dword ptr [rbp - 4]
	.loc	1 5 75 is_stmt 0        # toy.c:5:75
	mov	dword ptr [4*rax + lava_val], esi
	.loc	1 5 82                  # toy.c:5:82
	pop	rbp
	ret
.Ltmp4:
.Lfunc_end0:
	.size	lava_set, .Lfunc_end0-lava_set
	.cfi_endproc

	.globl	lava_get
	.align	16, 0x90
	.type	lava_get,@function
lava_get:                               # @lava_get
.Lfunc_begin1:
	.loc	1 7 0 is_stmt 1         # toy.c:7:0
	.cfi_startproc
# BB#0:
	push	rbp
.Ltmp5:
	.cfi_def_cfa_offset 16
.Ltmp6:
	.cfi_offset rbp, -16
	mov	rbp, rsp
.Ltmp7:
	.cfi_def_cfa_register rbp
	#DEBUG_VALUE: lava_get:bug_num <- [%RBP+-4]
	mov	dword ptr [rbp - 4], edi
	.loc	1 7 54 prologue_end     # toy.c:7:54
.Ltmp8:
	mov	eax, dword ptr [rbp - 4]
	mov	eax, dword ptr [4*rax + lava_val]
	.loc	1 7 47 is_stmt 0        # toy.c:7:47
	pop	rbp
	ret
.Ltmp9:
.Lfunc_end1:
	.size	lava_get, .Lfunc_end1-lava_get
	.cfi_endproc

	.globl	parse_header
	.align	16, 0x90
	.type	parse_header,@function
parse_header:                           # @parse_header
.Lfunc_begin2:
	.loc	1 37 0 is_stmt 1        # toy.c:37:0
	.cfi_startproc
# BB#0:
	push	rbp
.Ltmp10:
	.cfi_def_cfa_offset 16
.Ltmp11:
	.cfi_offset rbp, -16
	mov	rbp, rsp
.Ltmp12:
	.cfi_def_cfa_register rbp
	sub	rsp, 16
	mov	rax, rsi
	#DEBUG_VALUE: parse_header:hdr <- [%RBP+-16]
	#DEBUG_VALUE: parse_header:f <- [%RBP+-8]
	mov	qword ptr [rbp - 8], rdi
	mov	qword ptr [rbp - 16], rax
	.loc	1 38 49 prologue_end    # toy.c:38:49
.Ltmp13:
	mov	rcx, qword ptr [rbp - 8]
	.loc	1 38 14 is_stmt 0       # toy.c:38:14
	mov	esi, 16
	mov	edx, 1
	mov	rdi, rax
	call	fread
.Ltmp14:
	.loc	1 38 9                  # toy.c:38:9
	cmp	rax, 1
	jne	.LBB2_3
# BB#1:
	#DEBUG_VALUE: parse_header:f <- [%RBP+-8]
	#DEBUG_VALUE: parse_header:hdr <- [%RBP+-16]
	.loc	1 40 9 is_stmt 1        # toy.c:40:9
.Ltmp15:
	mov	rax, qword ptr [rbp - 16]
.Ltmp16:
	.loc	1 40 9 is_stmt 0        # toy.c:40:9
	cmp	dword ptr [rax], 1279350337
	jne	.LBB2_3
# BB#2:
	#DEBUG_VALUE: parse_header:hdr <- [%RBP+-16]
	#DEBUG_VALUE: parse_header:f <- [%RBP+-8]
	.loc	1 42 1 is_stmt 1        # toy.c:42:1
	add	rsp, 16
	pop	rbp
	ret
.LBB2_3:
	#DEBUG_VALUE: parse_header:hdr <- [%RBP+-16]
	#DEBUG_VALUE: parse_header:f <- [%RBP+-8]
	.loc	1 41 9                  # toy.c:41:9
.Ltmp17:
	mov	edi, 1
	call	exit
.Ltmp18:
.Lfunc_end2:
	.size	parse_header, .Lfunc_end2-parse_header
	.cfi_endproc

	.globl	parse_record
	.align	16, 0x90
	.type	parse_record,@function
parse_record:                           # @parse_record
.Lfunc_begin3:
	.loc	1 44 0                  # toy.c:44:0
	.cfi_startproc
# BB#0:
	push	rbp
.Ltmp19:
	.cfi_def_cfa_offset 16
.Ltmp20:
	.cfi_offset rbp, -16
	mov	rbp, rsp
.Ltmp21:
	.cfi_def_cfa_register rbp
	sub	rsp, 16
	#DEBUG_VALUE: parse_record:f <- [%RBP+-8]
	mov	qword ptr [rbp - 8], rdi
	.loc	1 45 38 prologue_end    # toy.c:45:38
.Ltmp22:
	mov	edi, 24
	call	malloc
	.loc	1 45 17 is_stmt 0       # toy.c:45:17
	mov	qword ptr [rbp - 16], rax
	.loc	1 46 48 is_stmt 1       # toy.c:46:48
.Ltmp23:
	mov	rcx, qword ptr [rbp - 8]
.Ltmp24:
	.loc	1 45 38                 # toy.c:45:38
	mov	esi, 24
	.loc	1 46 14                 # toy.c:46:14
.Ltmp25:
	mov	edx, 1
	mov	rdi, rax
	call	fread
.Ltmp26:
	.loc	1 46 9 is_stmt 0        # toy.c:46:9
	cmp	rax, 1
	jne	.LBB3_2
# BB#1:
	#DEBUG_VALUE: parse_record:f <- [%RBP+-8]
	.loc	1 48 12 is_stmt 1       # toy.c:48:12
	mov	rax, qword ptr [rbp - 16]
	.loc	1 48 5 is_stmt 0        # toy.c:48:5
	add	rsp, 16
	pop	rbp
	ret
.LBB3_2:
	#DEBUG_VALUE: parse_record:f <- [%RBP+-8]
	.loc	1 47 9 is_stmt 1        # toy.c:47:9
.Ltmp27:
	mov	edi, 1
	call	exit
.Ltmp28:
.Lfunc_end3:
	.size	parse_record, .Lfunc_end3-parse_record
	.cfi_endproc

	.globl	consume_record
	.align	16, 0x90
	.type	consume_record,@function
consume_record:                         # @consume_record
.Lfunc_begin4:
	.loc	1 51 0                  # toy.c:51:0
	.cfi_startproc
# BB#0:
	push	rbp
.Ltmp29:
	.cfi_def_cfa_offset 16
.Ltmp30:
	.cfi_offset rbp, -16
	mov	rbp, rsp
.Ltmp31:
	.cfi_def_cfa_register rbp
	sub	rsp, 16
	mov	rcx, rdi
	#DEBUG_VALUE: consume_record:ent <- [%RBP+-8]
	mov	qword ptr [rbp - 8], rcx
	.loc	1 52 5 prologue_end     # toy.c:52:5
.Ltmp32:
	mov	edi, .L.str
	xor	eax, eax
	mov	rsi, rcx
	call	printf
	.loc	1 53 9                  # toy.c:53:9
.Ltmp33:
	mov	rax, qword ptr [rbp - 8]
.Ltmp34:
	.loc	1 53 9 is_stmt 0        # toy.c:53:9
	cmp	dword ptr [rax + 16], 1
	jne	.LBB4_9
# BB#1:
	#DEBUG_VALUE: consume_record:ent <- [%RBP+-8]
	.loc	1 54 21 is_stmt 1       # toy.c:54:21
.Ltmp35:
	cmp	qword ptr [rbp - 8], 0
	je	.LBB4_4
# BB#2:
	#DEBUG_VALUE: consume_record:ent <- [%RBP+-8]
	.loc	1 54 13 is_stmt 0 discriminator 1 # toy.c:54:13
	cmp	qword ptr [rbp - 8], 0
	je	.LBB4_4
# BB#3:
	#DEBUG_VALUE: consume_record:ent <- [%RBP+-8]
.Ltmp36:
	#DEBUG_VALUE: lava_131 <- [%RBP+-12]
	.loc	1 55 17 is_stmt 1       # toy.c:55:17
	mov	dword ptr [rbp - 12], 0
	.loc	1 56 45                 # toy.c:56:45
	mov	rax, qword ptr [rbp - 8]
	.loc	1 56 25 is_stmt 0       # toy.c:56:25
	movzx	eax, byte ptr [rax]
	.loc	1 56 22                 # toy.c:56:22
	mov	dword ptr [rbp - 12], eax
	.loc	1 57 45 is_stmt 1       # toy.c:57:45
	mov	rcx, qword ptr [rbp - 8]
	.loc	1 57 25 is_stmt 0       # toy.c:57:25
	movzx	ecx, byte ptr [rcx + 1]
	.loc	1 57 54                 # toy.c:57:54
	shl	ecx, 8
	.loc	1 57 22                 # toy.c:57:22
	or	ecx, eax
	mov	dword ptr [rbp - 12], ecx
	.loc	1 58 45 is_stmt 1       # toy.c:58:45
	mov	rax, qword ptr [rbp - 8]
	.loc	1 58 25 is_stmt 0       # toy.c:58:25
	movzx	eax, byte ptr [rax + 2]
	.loc	1 58 54                 # toy.c:58:54
	shl	eax, 16
	.loc	1 58 22                 # toy.c:58:22
	or	eax, ecx
	mov	dword ptr [rbp - 12], eax
	.loc	1 59 45 is_stmt 1       # toy.c:59:45
	mov	rcx, qword ptr [rbp - 8]
	.loc	1 59 25 is_stmt 0       # toy.c:59:25
	movzx	esi, byte ptr [rcx + 3]
	.loc	1 59 54                 # toy.c:59:54
	shl	esi, 24
	.loc	1 59 22                 # toy.c:59:22
	or	esi, eax
	mov	dword ptr [rbp - 12], esi
	.loc	1 60 13 is_stmt 1       # toy.c:60:13
	mov	edi, 131
	call	lava_set
.Ltmp37:
.LBB4_4:
	#DEBUG_VALUE: consume_record:ent <- [%RBP+-8]
	.loc	1 62 25                 # toy.c:62:25
	mov	edi, 131
	call	lava_get
	.loc	1 62 23 is_stmt 0       # toy.c:62:23
	cmp	eax, 1818326494
	je	.LBB4_6
# BB#5:
	#DEBUG_VALUE: consume_record:ent <- [%RBP+-8]
	.loc	1 62 52 discriminator 1 # toy.c:62:52
	mov	edi, 131
	call	lava_get
	.loc	1 62 13 discriminator 1 # toy.c:62:13
	cmp	eax, -562732692
	jne	.LBB4_7
.LBB4_6:
	#DEBUG_VALUE: consume_record:ent <- [%RBP+-8]
	.loc	1 63 35 is_stmt 1       # toy.c:63:35
	mov	edi, 131
	call	lava_get
	.loc	1 63 34 is_stmt 0       # toy.c:63:34
	mov	eax, eax
	lea	rdi, [rax + .L.str.1]
	.loc	1 63 50                 # toy.c:63:50
	mov	rax, qword ptr [rbp - 8]
	movss	xmm0, dword ptr [rax + 20] # xmm0 = mem[0],zero,zero,zero
	cvtss2sd	xmm0, xmm0
	jmp	.LBB4_8
.Ltmp38:
.LBB4_9:
	#DEBUG_VALUE: consume_record:ent <- [%RBP+-8]
	.loc	1 67 14 is_stmt 1       # toy.c:67:14
	mov	rax, qword ptr [rbp - 8]
.Ltmp39:
	.loc	1 67 14 is_stmt 0       # toy.c:67:14
	cmp	dword ptr [rax + 16], 2
	jne	.LBB4_12
# BB#10:
	#DEBUG_VALUE: consume_record:ent <- [%RBP+-8]
	.loc	1 68 34 is_stmt 1       # toy.c:68:34
.Ltmp40:
	mov	rax, qword ptr [rbp - 8]
	.loc	1 68 44 is_stmt 0       # toy.c:68:44
	mov	esi, dword ptr [rax + 20]
	.loc	1 68 9                  # toy.c:68:9
	mov	edi, .L.str.2
	xor	eax, eax
	call	printf
	jmp	.LBB4_11
.Ltmp41:
.LBB4_7:
	#DEBUG_VALUE: consume_record:ent <- [%RBP+-8]
	.loc	1 65 36 is_stmt 1       # toy.c:65:36
	mov	rax, qword ptr [rbp - 8]
	movss	xmm0, dword ptr [rax + 20] # xmm0 = mem[0],zero,zero,zero
	cvtss2sd	xmm0, xmm0
	.loc	1 65 13 is_stmt 0       # toy.c:65:13
	mov	edi, .L.str.1
.LBB4_8:
	#DEBUG_VALUE: consume_record:ent <- [%RBP+-8]
	mov	al, 1
	call	printf
.Ltmp42:
.LBB4_11:
	#DEBUG_VALUE: consume_record:ent <- [%RBP+-8]
	.loc	1 74 10 is_stmt 1       # toy.c:74:10
	mov	rdi, qword ptr [rbp - 8]
	.loc	1 74 5 is_stmt 0        # toy.c:74:5
	call	free
	.loc	1 75 1 is_stmt 1        # toy.c:75:1
	add	rsp, 16
	pop	rbp
	ret
.LBB4_12:
	#DEBUG_VALUE: consume_record:ent <- [%RBP+-8]
	.loc	1 71 37                 # toy.c:71:37
.Ltmp43:
	mov	rax, qword ptr [rbp - 8]
	.loc	1 71 42 is_stmt 0       # toy.c:71:42
	mov	esi, dword ptr [rax + 16]
	.loc	1 71 9                  # toy.c:71:9
	mov	edi, .L.str.3
	xor	eax, eax
	call	printf
	.loc	1 72 9 is_stmt 1        # toy.c:72:9
	mov	edi, 1
	call	exit
.Ltmp44:
.Lfunc_end4:
	.size	consume_record, .Lfunc_end4-consume_record
	.cfi_endproc

	.globl	main
	.align	16, 0x90
	.type	main,@function
main:                                   # @main
.Lfunc_begin5:
	.loc	1 77 0                  # toy.c:77:0
	.cfi_startproc
# BB#0:
	push	rbp
.Ltmp45:
	.cfi_def_cfa_offset 16
.Ltmp46:
	.cfi_offset rbp, -16
	mov	rbp, rsp
.Ltmp47:
	.cfi_def_cfa_register rbp
	sub	rsp, 64
	#DEBUG_VALUE: main:argc <- [%RBP+-8]
	#DEBUG_VALUE: main:argv <- [%RBP+-16]
	mov	dword ptr [rbp - 4], 0
	mov	dword ptr [rbp - 8], edi
	mov	qword ptr [rbp - 16], rsi
	.loc	1 78 21 prologue_end    # toy.c:78:21
.Ltmp48:
	mov	rdi, qword ptr [rsi + 8]
	.loc	1 78 15 is_stmt 0       # toy.c:78:15
	mov	esi, .L.str.4
	call	fopen
	.loc	1 78 11                 # toy.c:78:11
	mov	qword ptr [rbp - 24], rax
	lea	rsi, [rbp - 40]
	.loc	1 81 5 is_stmt 1        # toy.c:81:5
	mov	rdi, rax
	call	parse_header
	.loc	1 82 41                 # toy.c:82:41
	mov	esi, dword ptr [rbp - 28]
	.loc	1 82 5 is_stmt 0        # toy.c:82:5
	mov	edi, .L.str.5
	xor	eax, eax
	call	printf
	.loc	1 85 12 is_stmt 1       # toy.c:85:12
.Ltmp49:
	mov	dword ptr [rbp - 44], 0
	jmp	.LBB5_1
	.align	16, 0x90
.LBB5_2:                                #   in Loop: Header=BB5_1 Depth=1
.Ltmp50:
	#DEBUG_VALUE: ent <- [%RBP+-56]
	.loc	1 86 40                 # toy.c:86:40
	mov	rdi, qword ptr [rbp - 24]
	.loc	1 86 27 is_stmt 0       # toy.c:86:27
	call	parse_record
	.loc	1 86 21                 # toy.c:86:21
	mov	qword ptr [rbp - 56], rax
	.loc	1 87 9 is_stmt 1        # toy.c:87:9
	mov	rdi, rax
	call	consume_record
.Ltmp51:
	.loc	1 85 37 discriminator 2 # toy.c:85:37
	inc	dword ptr [rbp - 44]
.LBB5_1:                                # =>This Inner Loop Header: Depth=1
	.loc	1 85 21 is_stmt 0 discriminator 1 # toy.c:85:21
	movzx	eax, word ptr [rbp - 32]
	.loc	1 85 5 discriminator 1  # toy.c:85:5
	cmp	dword ptr [rbp - 44], eax
	jb	.LBB5_2
.Ltmp52:
# BB#3:
	.loc	1 89 5 is_stmt 1        # toy.c:89:5
	xor	eax, eax
	add	rsp, 64
	pop	rbp
	ret
.Ltmp53:
.Lfunc_end5:
	.size	main, .Lfunc_end5-main
	.cfi_endproc

	.type	lava_val,@object        # @lava_val
	.local	lava_val
	.comm	lava_val,4000000,16
	.type	.L.str,@object          # @.str
	.section	.rodata.str1.1,"aMS",@progbits,1
.L.str:
	.asciz	"Entry: bar = %s, "
	.size	.L.str, 18

	.type	.L.str.1,@object        # @.str.1
.L.str.1:
	.asciz	"fdata = %f\n"
	.size	.L.str.1, 12

	.type	.L.str.2,@object        # @.str.2
.L.str.2:
	.asciz	"intdata = %u\n"
	.size	.L.str.2, 14

	.type	.L.str.3,@object        # @.str.3
.L.str.3:
	.asciz	"Unknown type %x\n"
	.size	.L.str.3, 17

	.type	.L.str.4,@object        # @.str.4
.L.str.4:
	.asciz	"rb"
	.size	.L.str.4, 3

	.type	.L.str.5,@object        # @.str.5
.L.str.5:
	.asciz	"File timestamp: %u\n"
	.size	.L.str.5, 20

	.file	3 "/usr/include/libio.h"
	.file	4 "/usr/include/bits/types.h"
	.file	5 "/usr/bin/../lib/clang/3.8.0/include/stddef.h"
	.file	6 "/usr/include/stdio.h"
	.section	".note.GNU-stack","",@progbits